target datalayout = "e-m:e-p270:32:32-p271:32:32-p272:64:64-i64:64-i128:128-f80:128-n8:16:32:64-S128"
target triple = "x86_64-unknown-linux-gnu"

%struct.QEMUSoundCard = type { ptr, ptr, %struct.anon }
%struct.anon = type { ptr, ptr }

; Function Attrs: nounwind sspstrong uwtable
define internal void @g_autoptr_cleanup_generic_gfree(ptr noundef %p) #0 {
entry:
  %p.addr = alloca ptr, align 8
  %pp = alloca ptr, align 8
  store ptr %p, ptr %p.addr, align 8
  %0 = load ptr, ptr %p.addr, align 8
  store ptr %0, ptr %pp, align 8
  %1 = load ptr, ptr %pp, align 8
  %2 = load ptr, ptr %1, align 8
  call void @g_free(ptr noundef %2)
  ret void
}

; Function Attrs: nounwind sspstrong uwtable
define internal void @set_audiodev(ptr noundef %obj, ptr noundef %v, ptr noundef %name, ptr noundef %opaque, ptr noundef %errp) #0 {
entry:
  %obj.addr = alloca ptr, align 8
  %v.addr = alloca ptr, align 8
  %name.addr = alloca ptr, align 8
  %opaque.addr = alloca ptr, align 8
  %errp.addr = alloca ptr, align 8
  %prop = alloca ptr, align 8
  %card = alloca ptr, align 8
  %state = alloca ptr, align 8
  %str = alloca ptr, align 8
  %cleanup.dest.slot = alloca i32, align 4
  store ptr %obj, ptr %obj.addr, align 8
  store ptr %v, ptr %v.addr, align 8
  store ptr %name, ptr %name.addr, align 8
  store ptr %opaque, ptr %opaque.addr, align 8
  store ptr %errp, ptr %errp.addr, align 8
  %0 = load ptr, ptr %opaque.addr, align 8
  store ptr %0, ptr %prop, align 8
  %1 = load ptr, ptr %obj.addr, align 8
  %2 = load ptr, ptr %prop, align 8
  %call = call ptr @object_field_prop_ptr(ptr noundef %1, ptr noundef %2)
  store ptr %call, ptr %card, align 8
  store ptr null, ptr %str, align 8
  %3 = load ptr, ptr %v.addr, align 8
  %4 = load ptr, ptr %name.addr, align 8
  %5 = load ptr, ptr %errp.addr, align 8
  %call1 = call zeroext i1 @visit_type_str(ptr noundef %3, ptr noundef %4, ptr noundef %str, ptr noundef %5)
  br i1 %call1, label %if.end, label %if.then

if.then:                                          ; preds = %entry
  store i32 1, ptr %cleanup.dest.slot, align 4
  br label %cleanup

if.end:                                           ; preds = %entry
  %6 = load ptr, ptr %str, align 8
  %7 = load ptr, ptr %errp.addr, align 8
  %call2 = call ptr @audio_state_by_name(ptr noundef %6, ptr noundef %7)
  store ptr %call2, ptr %state, align 8
  %8 = load ptr, ptr %state, align 8
  %tobool = icmp ne ptr %8, null
  br i1 %tobool, label %if.then3, label %if.end5

if.then3:                                         ; preds = %if.end
  %9 = load ptr, ptr %state, align 8
  %10 = load ptr, ptr %card, align 8
  %state4 = getelementptr inbounds %struct.QEMUSoundCard, ptr %10, i32 0, i32 1
  store ptr %9, ptr %state4, align 8
  br label %if.end5

if.end5:                                          ; preds = %if.then3, %if.end
  store i32 0, ptr %cleanup.dest.slot, align 4
  br label %cleanup

cleanup:                                          ; preds = %if.end5, %if.then
  call void @g_autoptr_cleanup_generic_gfree(ptr noundef %str)
  %cleanup.dest = load i32, ptr %cleanup.dest.slot, align 4
  switch i32 %cleanup.dest, label %unreachable [
    i32 0, label %cleanup.cont
    i32 1, label %cleanup.cont
  ]

cleanup.cont:                                     ; preds = %cleanup, %cleanup
  ret void

unreachable:                                      ; preds = %cleanup
  unreachable
}