; Function Attrs: nounwind sspstrong uwtable
define internal void @set_audiodev(ptr noundef %obj, ptr noundef %v, ptr noundef %name, ptr noundef %opaque, ptr noundef %errp) #0 {
entry:
  %str = alloca ptr, align 8
  %call = tail call ptr @object_field_prop_ptr(ptr noundef %obj, ptr noundef %opaque) #10
  store ptr null, ptr %str, align 8
  %call1 = call zeroext i1 @visit_type_str(ptr noundef %v, ptr noundef %name, ptr noundef nonnull %str, ptr noundef %errp) #10
  br i1 %call1, label %if.end, label %cleanup

if.end:                                           ; preds = %entry
  %0 = load ptr, ptr %str, align 8
  %call2 = call ptr @audio_state_by_name(ptr noundef %0, ptr noundef %errp) #10
  %tobool.not = icmp eq ptr %call2, null
  br i1 %tobool.not, label %cleanup, label %if.then3

if.then3:                                         ; preds = %if.end
  %state4 = getelementptr inbounds nuw i8, ptr %call, i64 8
  store ptr %call2, ptr %state4, align 8
  br label %cleanup

cleanup:                                          ; preds = %if.end, %if.then3, %entry
  %str.val = load ptr, ptr %str, align 8
  call void @g_free(ptr noundef %str.val) #10
  ret void
}